target datalayout = "e-m:e-p270:32:32-p271:32:32-p272:64:64-i64:64-i128:128-f80:128-n8:16:32:64-S128"
target triple = "x86_64-pc-linux-gnu"

%struct.VuDev = type { i32, i32, ptr, ptr, %struct.VuDevInflightInfo, i32, %union.pthread_mutex_t, i32, i64, ptr, i64, i64, i8, i16, ptr, ptr, ptr, ptr, ptr, i32, i8 }
%struct.VuDevInflightInfo = type { i32, ptr, i64 }
%union.pthread_mutex_t = type { %struct.__pthread_mutex_s }
%struct.__pthread_mutex_s = type { i32, i32, i32, i32, i32, i16, i16, %struct.__pthread_internal_list }
%struct.__pthread_internal_list = type { ptr, ptr }
%struct.VhostUserMsg = type <{ i32, i32, i32, %union.anon, [8 x i32], i32, ptr }>
%union.anon = type { %struct.VhostUserMemory, [8 x i8] }
%struct.VhostUserMemory = type { i32, i32, [8 x %struct.VhostUserMemoryRegion] }
%struct.VhostUserMemoryRegion = type { i64, i64, i64, i64 }
%struct.VhostUserShared = type { [16 x i8] }

@.str.40 = private unnamed_addr constant [50 x i8] c"../qemu/subprojects/libvhost-user/libvhost-user.c\00", align 1
@.str.52 = private unnamed_addr constant [10 x i8] c"fbit < 64\00", align 1
@__PRETTY_FUNCTION__.has_feature = private unnamed_addr constant [42 x i8] c"_Bool has_feature(uint64_t, unsigned int)\00", align 1

; Function Attrs: inlinehint nounwind uwtable
define internal zeroext i1 @has_feature(i64 noundef %0, i32 noundef %1) #3 {
  %3 = alloca i64, align 8
  %4 = alloca i32, align 4
  store i64 %0, ptr %3, align 8
  store i32 %1, ptr %4, align 4
  %5 = load i32, ptr %4, align 4
  %6 = icmp ult i32 %5, 64
  br i1 %6, label %7, label %8

7:                                                ; preds = %2
  br label %9

8:                                                ; preds = %2
  call void @__assert_fail(ptr noundef @.str.52, ptr noundef @.str.40, i32 noundef 109, ptr noundef @__PRETTY_FUNCTION__.has_feature) #15
  unreachable

9:                                                ; preds = %7
  %10 = load i64, ptr %3, align 8
  %11 = load i32, ptr %4, align 4
  %12 = zext i32 %11 to i64
  %13 = shl i64 1, %12
  %14 = and i64 %10, %13
  %15 = icmp ne i64 %14, 0
  %16 = xor i1 %15, true
  %17 = xor i1 %16, true
  ret i1 %17
}

; Function Attrs: inlinehint nounwind uwtable
define internal zeroext i1 @vu_has_protocol_feature(ptr noundef %0, i32 noundef %1) #3 {
  %3 = alloca ptr, align 8
  %4 = alloca i32, align 4
  store ptr %0, ptr %3, align 8
  store i32 %1, ptr %4, align 4
  %5 = load ptr, ptr %3, align 8
  %6 = getelementptr inbounds nuw %struct.VuDev, ptr %5, i32 0, i32 11
  %7 = load i64, ptr %6, align 8
  %8 = load i32, ptr %4, align 4
  %9 = call zeroext i1 @has_feature(i64 noundef %7, i32 noundef %8)
  ret i1 %9
}

; Function Attrs: nounwind uwtable
define dso_local zeroext i1 @vu_lookup_shared_object(ptr noundef %0, ptr noundef %1, ptr noundef %2) #0 {
  %4 = alloca i1, align 1
  %5 = alloca ptr, align 8
  %6 = alloca ptr, align 8
  %7 = alloca ptr, align 8
  %8 = alloca i8, align 1
  %9 = alloca %struct.VhostUserMsg, align 1
  %10 = alloca %struct.VhostUserMsg, align 1
  %11 = alloca i32, align 4
  store ptr %0, ptr %5, align 8
  store ptr %1, ptr %6, align 8
  store ptr %2, ptr %7, align 8
  call void @llvm.lifetime.start.p0(i64 1, ptr %8) #13
  store i8 0, ptr %8, align 1
  call void @llvm.lifetime.start.p0(i64 328, ptr %9) #13
  call void @llvm.memset.p0.i64(ptr align 1 %9, i8 0, i64 328, i1 false), !annotation !4
  call void @llvm.lifetime.start.p0(i64 328, ptr %10) #13
  call void @llvm.memset.p0.i64(ptr align 1 %10, i8 0, i64 328, i1 false)
  %12 = getelementptr inbounds %struct.VhostUserMsg, ptr %10, i32 0, i32 0
  store i32 8, ptr %12, align 1
  %13 = getelementptr inbounds %struct.VhostUserMsg, ptr %10, i32 0, i32 1
  store i32 9, ptr %13, align 1
  %14 = getelementptr inbounds %struct.VhostUserMsg, ptr %10, i32 0, i32 2
  store i32 16, ptr %14, align 1
  %15 = getelementptr inbounds nuw %struct.VhostUserMsg, ptr %10, i32 0, i32 3
  %16 = getelementptr inbounds nuw %struct.VhostUserShared, ptr %15, i32 0, i32 0
  %17 = getelementptr inbounds [16 x i8], ptr %16, i64 0, i64 0
  %18 = load ptr, ptr %6, align 8
  call void @llvm.memcpy.p0.p0.i64(ptr align 1 %17, ptr align 1 %18, i64 16, i1 false)
  %19 = load ptr, ptr %5, align 8
  %20 = call zeroext i1 @vu_has_protocol_feature(ptr noundef %19, i32 noundef 18)
  br i1 %20, label %22, label %21

21:                                               ; preds = %3
  store i1 false, ptr %4, align 1
  store i32 1, ptr %11, align 4
  br label %78

22:                                               ; preds = %3
  %23 = load ptr, ptr %5, align 8
  %24 = getelementptr inbounds nuw %struct.VuDev, ptr %23, i32 0, i32 6
  %25 = call i32 @pthread_mutex_lock(ptr noundef %24) #13
  %26 = load ptr, ptr %5, align 8
  %27 = load ptr, ptr %5, align 8
  %28 = getelementptr inbounds nuw %struct.VuDev, ptr %27, i32 0, i32 7
  %29 = load i32, ptr %28, align 8
  %30 = call zeroext i1 @vu_message_write(ptr noundef %26, i32 noundef %29, ptr noundef %10)
  br i1 %30, label %32, label %31

31:                                               ; preds = %22
  br label %72

32:                                               ; preds = %22
  %33 = load ptr, ptr %5, align 8
  %34 = load ptr, ptr %5, align 8
  %35 = getelementptr inbounds nuw %struct.VuDev, ptr %34, i32 0, i32 7
  %36 = load i32, ptr %35, align 8
  %37 = call zeroext i1 @vu_message_read_default(ptr noundef %33, i32 noundef %36, ptr noundef %9)
  br i1 %37, label %39, label %38

38:                                               ; preds = %32
  br label %72

39:                                               ; preds = %32
  %40 = getelementptr inbounds nuw %struct.VhostUserMsg, ptr %9, i32 0, i32 0
  %41 = load i32, ptr %40, align 1
  %42 = getelementptr inbounds nuw %struct.VhostUserMsg, ptr %10, i32 0, i32 0
  %43 = load i32, ptr %42, align 1
  %44 = icmp ne i32 %41, %43
  br i1 %44, label %45, label %49

45:                                               ; preds = %39
  br label %46

46:                                               ; preds = %45
  br label %47

47:                                               ; preds = %46
  br label %48

48:                                               ; preds = %47
  br label %72

49:                                               ; preds = %39
  %50 = getelementptr inbounds nuw %struct.VhostUserMsg, ptr %9, i32 0, i32 5
  %51 = load i32, ptr %50, align 1
  %52 = icmp ne i32 %51, 1
  br i1 %52, label %53, label %57

53:                                               ; preds = %49
  br label %54

54:                                               ; preds = %53
  br label %55

55:                                               ; preds = %54
  br label %56

56:                                               ; preds = %55
  br label %72

57:                                               ; preds = %49
  %58 = getelementptr inbounds nuw %struct.VhostUserMsg, ptr %9, i32 0, i32 4
  %59 = getelementptr inbounds [8 x i32], ptr %58, i64 0, i64 0
  %60 = load i32, ptr %59, align 1
  %61 = load ptr, ptr %7, align 8
  store i32 %60, ptr %61, align 4
  %62 = load ptr, ptr %7, align 8
  %63 = load i32, ptr %62, align 4
  %64 = icmp sgt i32 %63, 0
  br i1 %64, label %65, label %69

65:                                               ; preds = %57
  %66 = getelementptr inbounds nuw %struct.VhostUserMsg, ptr %9, i32 0, i32 3
  %67 = load i64, ptr %66, align 1
  %68 = icmp eq i64 %67, 0
  br label %69

69:                                               ; preds = %65, %57
  %70 = phi i1 [ false, %57 ], [ %68, %65 ]
  %71 = zext i1 %70 to i8
  store i8 %71, ptr %8, align 1
  br label %72

72:                                               ; preds = %69, %56, %48, %38, %31
  %73 = load ptr, ptr %5, align 8
  %74 = getelementptr inbounds nuw %struct.VuDev, ptr %73, i32 0, i32 6
  %75 = call i32 @pthread_mutex_unlock(ptr noundef %74) #13
  %76 = load i8, ptr %8, align 1, !range !5, !noundef !6
  %77 = trunc i8 %76 to i1
  store i1 %77, ptr %4, align 1
  store i32 1, ptr %11, align 4
  br label %78

78:                                               ; preds = %72, %21
  call void @llvm.lifetime.end.p0(i64 328, ptr %10) #13
  call void @llvm.lifetime.end.p0(i64 328, ptr %9) #13
  call void @llvm.lifetime.end.p0(i64 1, ptr %8) #13
  %79 = load i1, ptr %4, align 1
  ret i1 %79
}