; Function Attrs: nounwind uwtable
define dso_local zeroext i1 @vu_lookup_shared_object(ptr noundef %0, ptr noundef readonly captures(none) %1, ptr noundef writeonly captures(none) %2) local_unnamed_addr #3 {
  %4 = alloca %struct.VhostUserMsg, align 4
  %5 = alloca %struct.VhostUserMsg, align 4
  call void @llvm.lifetime.start.p0(i64 328, ptr nonnull %4) #21
  call void @llvm.lifetime.start.p0(i64 328, ptr nonnull %5) #21
  %6 = getelementptr inbounds nuw i8, ptr %5, i64 28
  call void @llvm.memset.p0.i64(ptr noundef nonnull align 4 dereferenceable(328) %6, i8 0, i64 300, i1 false)
  store i32 8, ptr %5, align 4
  %7 = getelementptr inbounds nuw i8, ptr %5, i64 4
  store i32 9, ptr %7, align 4
  %8 = getelementptr inbounds nuw i8, ptr %5, i64 8
  store i32 16, ptr %8, align 4
  %9 = getelementptr inbounds nuw i8, ptr %5, i64 12
  call void @llvm.memcpy.p0.p0.i64(ptr noundef nonnull align 4 dereferenceable(16) %9, ptr noundef nonnull align 1 dereferenceable(16) %1, i64 16, i1 false)
  %10 = getelementptr i8, ptr %0, i64 128
  %.val = load i64, ptr %10, align 8
  %11 = and i64 %.val, 262144
  %.not = icmp eq i64 %11, 0
  br i1 %.not, label %38, label %12

12:                                               ; preds = %3
  call void @llvm.memset.p0.i64(ptr noundef nonnull align 4 dereferenceable(328) %4, i8 0, i64 328, i1 false), !annotation !4
  %13 = getelementptr inbounds nuw i8, ptr %0, i64 56
  %14 = tail call i32 @pthread_mutex_lock(ptr noundef nonnull %13) #21
  %15 = getelementptr inbounds nuw i8, ptr %0, i64 96
  %16 = load i32, ptr %15, align 8
  %17 = call fastcc zeroext i1 @vu_message_write(ptr noundef nonnull %0, i32 noundef %16, ptr noundef %5)
  br i1 %17, label %18, label %36

18:                                               ; preds = %12
  %19 = load i32, ptr %15, align 8
  %20 = call zeroext i1 @vu_message_read_default(ptr noundef nonnull %0, i32 noundef %19, ptr noundef nonnull %4)
  br i1 %20, label %21, label %36

21:                                               ; preds = %18
  %22 = load i32, ptr %4, align 4
  %23 = load i32, ptr %5, align 4
  %24 = icmp ne i32 %22, %23
  %25 = getelementptr inbounds nuw i8, ptr %4, i64 316
  %26 = load i32, ptr %25, align 4
  %27 = icmp ne i32 %26, 1
  %or.cond = select i1 %24, i1 true, i1 %27
  br i1 %or.cond, label %36, label %28

28:                                               ; preds = %21
  %29 = getelementptr inbounds nuw i8, ptr %4, i64 284
  %30 = load i32, ptr %29, align 4
  store i32 %30, ptr %2, align 4
  %31 = icmp sgt i32 %30, 0
  %32 = getelementptr inbounds nuw i8, ptr %4, i64 12
  %33 = load i64, ptr %32, align 4
  %34 = icmp eq i64 %33, 0
  %35 = select i1 %31, i1 %34, i1 false
  br label %36

36:                                               ; preds = %21, %18, %12, %28
  %.0 = phi i1 [ false, %21 ], [ %35, %28 ], [ false, %18 ], [ false, %12 ]
  %37 = call i32 @pthread_mutex_unlock(ptr noundef nonnull %13) #21
  br label %38

38:                                               ; preds = %3, %36
  %.013 = phi i1 [ %.0, %36 ], [ false, %3 ]
  call void @llvm.lifetime.end.p0(i64 328, ptr nonnull %5) #21
  call void @llvm.lifetime.end.p0(i64 328, ptr nonnull %4) #21
  ret i1 %.013
}